target datalayout = "e-m:e-p270:32:32-p271:32:32-p272:64:64-i64:64-i128:128-f80:128-n8:16:32:64-S128"
target triple = "x86_64-unknown-linux-gnu"

%"class.OpenImageIO_v2_6_0::ImageOutput::Impl" = type { %"class.boost::thread_specific_ptr", i32, ptr, %"class.std::unique_ptr" }
%"class.boost::thread_specific_ptr" = type { ptr }
%"class.std::unique_ptr" = type { %"struct.std::__uniq_ptr_data" }
%"struct.std::__uniq_ptr_data" = type { %"class.std::__uniq_ptr_impl" }
%"class.std::__uniq_ptr_impl" = type { %"class.std::tuple" }
%"class.std::tuple" = type { %"struct.std::_Tuple_impl" }
%"struct.std::_Tuple_impl" = type { %"struct.std::_Head_base.1" }
%"struct.std::_Head_base.1" = type { ptr }
%"struct.OpenImageIO_v2_6_0::TypeDesc" = type { i8, i8, i8, i8, i32 }
%"class.OpenImageIO_v2_6_0::ImageOutput" = type { ptr, %"class.OpenImageIO_v2_6_0::ImageSpec", %"class.std::unique_ptr.12" }
%"class.OpenImageIO_v2_6_0::ImageSpec" = type { i32, i32, i32, i32, i32, i32, i32, i32, i32, i32, i32, i32, i32, i32, i32, i32, %"struct.OpenImageIO_v2_6_0::TypeDesc", %"class.std::vector", %"class.std::vector.2", i32, i32, i8, %"class.OpenImageIO_v2_6_0::ParamValueList" }
%"class.std::vector" = type { %"struct.std::_Vector_base" }
%"struct.std::_Vector_base" = type { %"struct.std::_Vector_base<OpenImageIO_v2_6_0::TypeDesc, std::allocator<OpenImageIO_v2_6_0::TypeDesc>>::_Vector_impl" }
%"struct.std::_Vector_base<OpenImageIO_v2_6_0::TypeDesc, std::allocator<OpenImageIO_v2_6_0::TypeDesc>>::_Vector_impl" = type { %"struct.std::_Vector_base<OpenImageIO_v2_6_0::TypeDesc, std::allocator<OpenImageIO_v2_6_0::TypeDesc>>::_Vector_impl_data" }
%"struct.std::_Vector_base<OpenImageIO_v2_6_0::TypeDesc, std::allocator<OpenImageIO_v2_6_0::TypeDesc>>::_Vector_impl_data" = type { ptr, ptr, ptr }
%"class.std::vector.2" = type { %"struct.std::_Vector_base.3" }
%"struct.std::_Vector_base.3" = type { %"struct.std::_Vector_base<std::__cxx11::basic_string<char>, std::allocator<std::__cxx11::basic_string<char>>>::_Vector_impl" }
%"struct.std::_Vector_base<std::__cxx11::basic_string<char>, std::allocator<std::__cxx11::basic_string<char>>>::_Vector_impl" = type { %"struct.std::_Vector_base<std::__cxx11::basic_string<char>, std::allocator<std::__cxx11::basic_string<char>>>::_Vector_impl_data" }
%"struct.std::_Vector_base<std::__cxx11::basic_string<char>, std::allocator<std::__cxx11::basic_string<char>>>::_Vector_impl_data" = type { ptr, ptr, ptr }
%"class.OpenImageIO_v2_6_0::ParamValueList" = type { %"class.std::vector.7" }
%"class.std::vector.7" = type { %"struct.std::_Vector_base.8" }
%"struct.std::_Vector_base.8" = type { %"struct.std::_Vector_base<OpenImageIO_v2_6_0::ParamValue, std::allocator<OpenImageIO_v2_6_0::ParamValue>>::_Vector_impl" }
%"struct.std::_Vector_base<OpenImageIO_v2_6_0::ParamValue, std::allocator<OpenImageIO_v2_6_0::ParamValue>>::_Vector_impl" = type { %"struct.std::_Vector_base<OpenImageIO_v2_6_0::ParamValue, std::allocator<OpenImageIO_v2_6_0::ParamValue>>::_Vector_impl_data" }
%"struct.std::_Vector_base<OpenImageIO_v2_6_0::ParamValue, std::allocator<OpenImageIO_v2_6_0::ParamValue>>::_Vector_impl_data" = type { ptr, ptr, ptr }
%"class.std::unique_ptr.12" = type { %"struct.std::__uniq_ptr_data.13" }
%"struct.std::__uniq_ptr_data.13" = type { %"class.std::__uniq_ptr_impl.14" }
%"class.std::__uniq_ptr_impl.14" = type { %"class.std::tuple.15" }
%"class.std::tuple.15" = type { %"struct.std::_Tuple_impl.16" }
%"struct.std::_Tuple_impl.16" = type { %"struct.std::_Tuple_impl.17", %"struct.std::_Head_base.19" }
%"struct.std::_Tuple_impl.17" = type { %"struct.std::_Head_base.18" }
%"struct.std::_Head_base.18" = type { ptr }
%"struct.std::_Head_base.19" = type { ptr }

; Function Attrs: mustprogress nounwind uwtable
define linkonce_odr void @_ZNSt10_Head_baseILm1ESt14default_deleteIN18OpenImageIO_v2_6_010Filesystem7IOProxyEELb1EEC2Ev(ptr noundef nonnull align 1 dereferenceable(1) %this) unnamed_addr #4 comdat align 2 {
entry:
  %this.addr = alloca ptr, align 8
  store ptr %this, ptr %this.addr, align 8
  ret void
}

; Function Attrs: mustprogress nounwind uwtable
define linkonce_odr void @_ZNSt10_Head_baseILm1EPFvPN18OpenImageIO_v2_6_011ImageOutput4ImplEELb0EEC2IS5_EEOT_(ptr noundef nonnull align 8 dereferenceable(8) %this, ptr noundef nonnull align 8 dereferenceable(8) %__h) unnamed_addr #4 comdat align 2 {
entry:
  %this.addr = alloca ptr, align 8
  %__h.addr = alloca ptr, align 8
  store ptr %this, ptr %this.addr, align 8
  store ptr %__h, ptr %__h.addr, align 8
  %this1 = load ptr, ptr %this.addr, align 8
  %_M_head_impl = getelementptr inbounds %"struct.std::_Head_base.18", ptr %this1, i32 0, i32 0
  %0 = load ptr, ptr %__h.addr, align 8
  %1 = load ptr, ptr %0, align 8
  store ptr %1, ptr %_M_head_impl, align 8
  ret void
}

; Function Attrs: mustprogress nounwind uwtable
define linkonce_odr void @_ZNSt10_Head_baseILm0EPN18OpenImageIO_v2_6_010Filesystem7IOProxyELb0EEC2Ev(ptr noundef nonnull align 8 dereferenceable(8) %this) unnamed_addr #4 comdat align 2 {
entry:
  %this.addr = alloca ptr, align 8
  store ptr %this, ptr %this.addr, align 8
  %this1 = load ptr, ptr %this.addr, align 8
  %_M_head_impl = getelementptr inbounds %"struct.std::_Head_base.1", ptr %this1, i32 0, i32 0
  store ptr null, ptr %_M_head_impl, align 8
  ret void
}

; Function Attrs: mustprogress uwtable
define linkonce_odr void @_ZNSt11_Tuple_implILm1EJSt14default_deleteIN18OpenImageIO_v2_6_010Filesystem7IOProxyEEEEC2Ev(ptr noundef nonnull align 1 dereferenceable(1) %this) unnamed_addr #6 comdat align 2 {
entry:
  %this.addr = alloca ptr, align 8
  store ptr %this, ptr %this.addr, align 8
  %this1 = load ptr, ptr %this.addr, align 8
  call void @_ZNSt10_Head_baseILm1ESt14default_deleteIN18OpenImageIO_v2_6_010Filesystem7IOProxyEELb1EEC2Ev(ptr noundef nonnull align 1 dereferenceable(1) %this1)
  ret void
}

; Function Attrs: mustprogress nounwind uwtable
define linkonce_odr void @_ZNSt10_Head_baseILm0EPN18OpenImageIO_v2_6_011ImageOutput4ImplELb0EEC2IRS3_EEOT_(ptr noundef nonnull align 8 dereferenceable(8) %this, ptr noundef nonnull align 8 dereferenceable(8) %__h) unnamed_addr #4 comdat align 2 {
entry:
  %this.addr = alloca ptr, align 8
  %__h.addr = alloca ptr, align 8
  store ptr %this, ptr %this.addr, align 8
  store ptr %__h, ptr %__h.addr, align 8
  %this1 = load ptr, ptr %this.addr, align 8
  %_M_head_impl = getelementptr inbounds %"struct.std::_Head_base.19", ptr %this1, i32 0, i32 0
  %0 = load ptr, ptr %__h.addr, align 8
  %1 = load ptr, ptr %0, align 8
  store ptr %1, ptr %_M_head_impl, align 8
  ret void
}

; Function Attrs: mustprogress uwtable
define linkonce_odr void @_ZNSt11_Tuple_implILm1EJPFvPN18OpenImageIO_v2_6_011ImageOutput4ImplEEEEC2IS5_EEOT_(ptr noundef nonnull align 8 dereferenceable(8) %this, ptr noundef nonnull align 8 dereferenceable(8) %__head) unnamed_addr #6 comdat align 2 {
entry:
  %this.addr = alloca ptr, align 8
  %__head.addr = alloca ptr, align 8
  store ptr %this, ptr %this.addr, align 8
  store ptr %__head, ptr %__head.addr, align 8
  %this1 = load ptr, ptr %this.addr, align 8
  %0 = load ptr, ptr %__head.addr, align 8
  call void @_ZNSt10_Head_baseILm1EPFvPN18OpenImageIO_v2_6_011ImageOutput4ImplEELb0EEC2IS5_EEOT_(ptr noundef nonnull align 8 dereferenceable(8) %this1, ptr noundef nonnull align 8 dereferenceable(8) %0)
  ret void
}

; Function Attrs: mustprogress uwtable
define linkonce_odr void @_ZNSt11_Tuple_implILm0EJPN18OpenImageIO_v2_6_010Filesystem7IOProxyESt14default_deleteIS2_EEEC2Ev(ptr noundef nonnull align 8 dereferenceable(8) %this) unnamed_addr #6 comdat align 2 {
entry:
  %this.addr = alloca ptr, align 8
  store ptr %this, ptr %this.addr, align 8
  %this1 = load ptr, ptr %this.addr, align 8
  call void @_ZNSt11_Tuple_implILm1EJSt14default_deleteIN18OpenImageIO_v2_6_010Filesystem7IOProxyEEEEC2Ev(ptr noundef nonnull align 1 dereferenceable(1) %this1)
  call void @_ZNSt10_Head_baseILm0EPN18OpenImageIO_v2_6_010Filesystem7IOProxyELb0EEC2Ev(ptr noundef nonnull align 8 dereferenceable(8) %this1)
  ret void
}

; Function Attrs: mustprogress uwtable
define linkonce_odr void @_ZNSt11_Tuple_implILm0EJPN18OpenImageIO_v2_6_011ImageOutput4ImplEPFvS3_EEEC2IRS3_JS5_EvEEOT_DpOT0_(ptr noundef nonnull align 8 dereferenceable(16) %this, ptr noundef nonnull align 8 dereferenceable(8) %__head, ptr noundef nonnull align 8 dereferenceable(8) %__tail) unnamed_addr #6 comdat align 2 {
entry:
  %this.addr = alloca ptr, align 8
  %__head.addr = alloca ptr, align 8
  %__tail.addr = alloca ptr, align 8
  store ptr %this, ptr %this.addr, align 8
  store ptr %__head, ptr %__head.addr, align 8
  store ptr %__tail, ptr %__tail.addr, align 8
  %this1 = load ptr, ptr %this.addr, align 8
  %0 = load ptr, ptr %__tail.addr, align 8
  call void @_ZNSt11_Tuple_implILm1EJPFvPN18OpenImageIO_v2_6_011ImageOutput4ImplEEEEC2IS5_EEOT_(ptr noundef nonnull align 8 dereferenceable(8) %this1, ptr noundef nonnull align 8 dereferenceable(8) %0)
  %1 = getelementptr inbounds i8, ptr %this1, i64 8
  %2 = load ptr, ptr %__head.addr, align 8
  call void @_ZNSt10_Head_baseILm0EPN18OpenImageIO_v2_6_011ImageOutput4ImplELb0EEC2IRS3_EEOT_(ptr noundef nonnull align 8 dereferenceable(8) %1, ptr noundef nonnull align 8 dereferenceable(8) %2)
  ret void
}

; Function Attrs: mustprogress nounwind uwtable
define linkonce_odr void @_ZNSt5tupleIJPN18OpenImageIO_v2_6_010Filesystem7IOProxyESt14default_deleteIS2_EEEC2ILb1ETnNSt9enable_ifIXclsr17_TupleConstraintsIXT_ES3_S5_EE37__is_implicitly_default_constructibleEEbE4typeELb1EEEv(ptr noundef nonnull align 8 dereferenceable(8) %this) unnamed_addr #4 comdat align 2 personality ptr @__gxx_personality_v0 {
entry:
  %this.addr = alloca ptr, align 8
  store ptr %this, ptr %this.addr, align 8
  %this1 = load ptr, ptr %this.addr, align 8
  invoke void @_ZNSt11_Tuple_implILm0EJPN18OpenImageIO_v2_6_010Filesystem7IOProxyESt14default_deleteIS2_EEEC2Ev(ptr noundef nonnull align 8 dereferenceable(8) %this1)
          to label %invoke.cont unwind label %terminate.lpad

invoke.cont:                                      ; preds = %entry
  ret void

terminate.lpad:                                   ; preds = %entry
  %0 = landingpad { ptr, i32 }
          catch ptr null
  %1 = extractvalue { ptr, i32 } %0, 0
  call void @__clang_call_terminate(ptr %1) #19
  unreachable
}

; Function Attrs: mustprogress nounwind uwtable
define linkonce_odr void @_ZNSt5tupleIJPN18OpenImageIO_v2_6_011ImageOutput4ImplEPFvS3_EEEC2IRS3_S5_TnNSt9enable_ifIXclsr4_TCCIXntcl14__is_alloc_argIT_EEEEE29__is_implicitly_constructibleISA_T0_EEEbE4typeELb1EEEOSA_OSB_(ptr noundef nonnull align 8 dereferenceable(16) %this, ptr noundef nonnull align 8 dereferenceable(8) %__a1, ptr noundef nonnull align 8 dereferenceable(8) %__a2) unnamed_addr #4 comdat align 2 personality ptr @__gxx_personality_v0 {
entry:
  %this.addr = alloca ptr, align 8
  %__a1.addr = alloca ptr, align 8
  %__a2.addr = alloca ptr, align 8
  store ptr %this, ptr %this.addr, align 8
  store ptr %__a1, ptr %__a1.addr, align 8
  store ptr %__a2, ptr %__a2.addr, align 8
  %this1 = load ptr, ptr %this.addr, align 8
  %0 = load ptr, ptr %__a1.addr, align 8
  %1 = load ptr, ptr %__a2.addr, align 8
  invoke void @_ZNSt11_Tuple_implILm0EJPN18OpenImageIO_v2_6_011ImageOutput4ImplEPFvS3_EEEC2IRS3_JS5_EvEEOT_DpOT0_(ptr noundef nonnull align 8 dereferenceable(16) %this1, ptr noundef nonnull align 8 dereferenceable(8) %0, ptr noundef nonnull align 8 dereferenceable(8) %1)
          to label %invoke.cont unwind label %terminate.lpad

invoke.cont:                                      ; preds = %entry
  ret void

terminate.lpad:                                   ; preds = %entry
  %2 = landingpad { ptr, i32 }
          catch ptr null
  %3 = extractvalue { ptr, i32 } %2, 0
  call void @__clang_call_terminate(ptr %3) #19
  unreachable
}

; Function Attrs: mustprogress nounwind uwtable
define linkonce_odr void @_ZNSt15__uniq_ptr_implIN18OpenImageIO_v2_6_010Filesystem7IOProxyESt14default_deleteIS2_EEC2Ev(ptr noundef nonnull align 8 dereferenceable(8) %this) unnamed_addr #4 comdat align 2 {
entry:
  %this.addr = alloca ptr, align 8
  store ptr %this, ptr %this.addr, align 8
  %this1 = load ptr, ptr %this.addr, align 8
  %_M_t = getelementptr inbounds %"class.std::__uniq_ptr_impl", ptr %this1, i32 0, i32 0
  call void @_ZNSt5tupleIJPN18OpenImageIO_v2_6_010Filesystem7IOProxyESt14default_deleteIS2_EEEC2ILb1ETnNSt9enable_ifIXclsr17_TupleConstraintsIXT_ES3_S5_EE37__is_implicitly_default_constructibleEEbE4typeELb1EEEv(ptr noundef nonnull align 8 dereferenceable(8) %_M_t) #3
  ret void
}

; Function Attrs: mustprogress nounwind uwtable
define linkonce_odr void @_ZNSt15__uniq_ptr_implIN18OpenImageIO_v2_6_011ImageOutput4ImplEPFvPS2_EEC2IS5_EES3_OT_(ptr noundef nonnull align 8 dereferenceable(16) %this, ptr noundef %__p, ptr noundef nonnull align 8 dereferenceable(8) %__d) unnamed_addr #4 comdat align 2 {
entry:
  %this.addr = alloca ptr, align 8
  %__p.addr = alloca ptr, align 8
  %__d.addr = alloca ptr, align 8
  store ptr %this, ptr %this.addr, align 8
  store ptr %__p, ptr %__p.addr, align 8
  store ptr %__d, ptr %__d.addr, align 8
  %this1 = load ptr, ptr %this.addr, align 8
  %_M_t = getelementptr inbounds %"class.std::__uniq_ptr_impl.14", ptr %this1, i32 0, i32 0
  %0 = load ptr, ptr %__d.addr, align 8
  call void @_ZNSt5tupleIJPN18OpenImageIO_v2_6_011ImageOutput4ImplEPFvS3_EEEC2IRS3_S5_TnNSt9enable_ifIXclsr4_TCCIXntcl14__is_alloc_argIT_EEEEE29__is_implicitly_constructibleISA_T0_EEEbE4typeELb1EEEOSA_OSB_(ptr noundef nonnull align 8 dereferenceable(16) %_M_t, ptr noundef nonnull align 8 dereferenceable(8) %__p.addr, ptr noundef nonnull align 8 dereferenceable(8) %0) #3
  ret void
}

; Function Attrs: mustprogress nounwind uwtable
define linkonce_odr void @_ZNSt15__uniq_ptr_dataIN18OpenImageIO_v2_6_010Filesystem7IOProxyESt14default_deleteIS2_ELb1ELb1EEC2Ev(ptr noundef nonnull align 8 dereferenceable(8) %this) unnamed_addr #4 comdat align 2 {
entry:
  %this.addr = alloca ptr, align 8
  store ptr %this, ptr %this.addr, align 8
  %this1 = load ptr, ptr %this.addr, align 8
  call void @_ZNSt15__uniq_ptr_implIN18OpenImageIO_v2_6_010Filesystem7IOProxyESt14default_deleteIS2_EEC2Ev(ptr noundef nonnull align 8 dereferenceable(8) %this1) #3
  ret void
}

; Function Attrs: noreturn nounwind uwtable
define linkonce_odr hidden void @__clang_call_terminate(ptr noundef %0) #11 comdat {
  %2 = call ptr @__cxa_begin_catch(ptr %0) #3
  call void @_ZSt9terminatev() #19
  unreachable
}

; Function Attrs: mustprogress uwtable
define linkonce_odr void @_ZNSt15__uniq_ptr_dataIN18OpenImageIO_v2_6_011ImageOutput4ImplEPFvPS2_ELb1ELb1EECI2St15__uniq_ptr_implIS2_S5_EIS5_EES3_OT_(ptr noundef nonnull align 8 dereferenceable(16) %this, ptr noundef %0, ptr noundef nonnull align 8 dereferenceable(8) %1) unnamed_addr #6 comdat align 2 {
entry:
  %this.addr = alloca ptr, align 8
  %.addr = alloca ptr, align 8
  %.addr1 = alloca ptr, align 8
  store ptr %this, ptr %this.addr, align 8
  store ptr %0, ptr %.addr, align 8
  store ptr %1, ptr %.addr1, align 8
  %this2 = load ptr, ptr %this.addr, align 8
  %2 = load ptr, ptr %.addr, align 8
  %3 = load ptr, ptr %.addr1, align 8
  call void @_ZNSt15__uniq_ptr_implIN18OpenImageIO_v2_6_011ImageOutput4ImplEPFvPS2_EEC2IS5_EES3_OT_(ptr noundef nonnull align 8 dereferenceable(16) %this2, ptr noundef %2, ptr noundef nonnull align 8 dereferenceable(8) %3)
  ret void
}

; Function Attrs: mustprogress nounwind uwtable
define linkonce_odr void @_ZNSt10unique_ptrIN18OpenImageIO_v2_6_010Filesystem7IOProxyESt14default_deleteIS2_EEC2IS4_vEEv(ptr noundef nonnull align 8 dereferenceable(8) %this) unnamed_addr #4 comdat align 2 {
entry:
  %this.addr = alloca ptr, align 8
  store ptr %this, ptr %this.addr, align 8
  %this1 = load ptr, ptr %this.addr, align 8
  %_M_t = getelementptr inbounds %"class.std::unique_ptr", ptr %this1, i32 0, i32 0
  call void @llvm.memset.p0.i64(ptr align 8 %_M_t, i8 0, i64 8, i1 false)
  call void @_ZNSt15__uniq_ptr_dataIN18OpenImageIO_v2_6_010Filesystem7IOProxyESt14default_deleteIS2_ELb1ELb1EEC2Ev(ptr noundef nonnull align 8 dereferenceable(8) %_M_t) #3
  ret void
}

; Function Attrs: mustprogress nounwind uwtable
define linkonce_odr hidden void @_ZN5boost19thread_specific_ptrINSt7__cxx1112basic_stringIcSt11char_traitsIcESaIcEEEEC2Ev(ptr noundef nonnull align 8 dereferenceable(8) %this) unnamed_addr #4 comdat align 2 {
entry:
  %this.addr = alloca ptr, align 8
  store ptr %this, ptr %this.addr, align 8
  %this1 = load ptr, ptr %this.addr, align 8
  %cleanup = getelementptr inbounds %"class.boost::thread_specific_ptr", ptr %this1, i32 0, i32 0
  store ptr @_ZN5boost19thread_specific_ptrINSt7__cxx1112basic_stringIcSt11char_traitsIcESaIcEEEE15default_deleterEPS6_, ptr %cleanup, align 8
  ret void
}

; Function Attrs: mustprogress nounwind uwtable
define linkonce_odr void @_ZNSt10unique_ptrIN18OpenImageIO_v2_6_011ImageOutput4ImplEPFvPS2_EEC2IS5_vEES3_NSt9enable_ifIXntsr19is_lvalue_referenceIT_EE5valueEOS9_E4typeE(ptr noundef nonnull align 8 dereferenceable(16) %this, ptr noundef %__p, ptr noundef nonnull align 8 dereferenceable(8) %__d) unnamed_addr #4 comdat align 2 personality ptr @__gxx_personality_v0 {
entry:
  %this.addr = alloca ptr, align 8
  %__p.addr = alloca ptr, align 8
  %__d.addr = alloca ptr, align 8
  store ptr %this, ptr %this.addr, align 8
  store ptr %__p, ptr %__p.addr, align 8
  store ptr %__d, ptr %__d.addr, align 8
  %this1 = load ptr, ptr %this.addr, align 8
  %_M_t = getelementptr inbounds %"class.std::unique_ptr.12", ptr %this1, i32 0, i32 0
  %0 = load ptr, ptr %__p.addr, align 8
  %1 = load ptr, ptr %__d.addr, align 8
  invoke void @_ZNSt15__uniq_ptr_dataIN18OpenImageIO_v2_6_011ImageOutput4ImplEPFvPS2_ELb1ELb1EECI2St15__uniq_ptr_implIS2_S5_EIS5_EES3_OT_(ptr noundef nonnull align 8 dereferenceable(16) %_M_t, ptr noundef %0, ptr noundef nonnull align 8 dereferenceable(8) %1)
          to label %invoke.cont unwind label %terminate.lpad

invoke.cont:                                      ; preds = %entry
  ret void

terminate.lpad:                                   ; preds = %entry
  %2 = landingpad { ptr, i32 }
          catch ptr null
  %3 = extractvalue { ptr, i32 } %2, 0
  call void @__clang_call_terminate(ptr %3) #19
  unreachable
}

; Function Attrs: mustprogress uwtable
define linkonce_odr void @_ZN18OpenImageIO_v2_6_011ImageOutput4ImplC2Ev(ptr noundef nonnull align 8 dereferenceable(32) %this) unnamed_addr #6 comdat align 2 {
entry:
  %this.addr = alloca ptr, align 8
  store ptr %this, ptr %this.addr, align 8
  %this1 = load ptr, ptr %this.addr, align 8
  %m_errormessage = getelementptr inbounds %"class.OpenImageIO_v2_6_0::ImageOutput::Impl", ptr %this1, i32 0, i32 0
  call void @_ZN5boost19thread_specific_ptrINSt7__cxx1112basic_stringIcSt11char_traitsIcESaIcEEEEC2Ev(ptr noundef nonnull align 8 dereferenceable(8) %m_errormessage)
  %m_threads = getelementptr inbounds %"class.OpenImageIO_v2_6_0::ImageOutput::Impl", ptr %this1, i32 0, i32 1
  store i32 0, ptr %m_threads, align 8
  %m_io = getelementptr inbounds %"class.OpenImageIO_v2_6_0::ImageOutput::Impl", ptr %this1, i32 0, i32 2
  store ptr null, ptr %m_io, align 8
  %m_io_local = getelementptr inbounds %"class.OpenImageIO_v2_6_0::ImageOutput::Impl", ptr %this1, i32 0, i32 3
  call void @_ZNSt10unique_ptrIN18OpenImageIO_v2_6_010Filesystem7IOProxyESt14default_deleteIS2_EEC2IS4_vEEv(ptr noundef nonnull align 8 dereferenceable(8) %m_io_local) #3
  ret void
}

; Function Attrs: mustprogress nounwind uwtable
define linkonce_odr void @_ZN18OpenImageIO_v2_6_08TypeDescC2ENS0_8BASETYPEENS0_9AGGREGATEENS0_12VECSEMANTICSEi(ptr noundef nonnull align 4 dereferenceable(8) %this, i32 noundef %btype, i32 noundef %agg, i32 noundef %semantics, i32 noundef %arraylen) unnamed_addr #4 comdat align 2 {
entry:
  %this.addr = alloca ptr, align 8
  %btype.addr = alloca i32, align 4
  %agg.addr = alloca i32, align 4
  %semantics.addr = alloca i32, align 4
  %arraylen.addr = alloca i32, align 4
  store ptr %this, ptr %this.addr, align 8
  store i32 %btype, ptr %btype.addr, align 4
  store i32 %agg, ptr %agg.addr, align 4
  store i32 %semantics, ptr %semantics.addr, align 4
  store i32 %arraylen, ptr %arraylen.addr, align 4
  %this1 = load ptr, ptr %this.addr, align 8
  %basetype = getelementptr inbounds %"struct.OpenImageIO_v2_6_0::TypeDesc", ptr %this1, i32 0, i32 0
  %0 = load i32, ptr %btype.addr, align 4
  %conv = trunc i32 %0 to i8
  store i8 %conv, ptr %basetype, align 4
  %aggregate = getelementptr inbounds %"struct.OpenImageIO_v2_6_0::TypeDesc", ptr %this1, i32 0, i32 1
  %1 = load i32, ptr %agg.addr, align 4
  %conv2 = trunc i32 %1 to i8
  store i8 %conv2, ptr %aggregate, align 1
  %vecsemantics = getelementptr inbounds %"struct.OpenImageIO_v2_6_0::TypeDesc", ptr %this1, i32 0, i32 2
  %2 = load i32, ptr %semantics.addr, align 4
  %conv3 = trunc i32 %2 to i8
  store i8 %conv3, ptr %vecsemantics, align 2
  %reserved = getelementptr inbounds %"struct.OpenImageIO_v2_6_0::TypeDesc", ptr %this1, i32 0, i32 3
  store i8 0, ptr %reserved, align 1
  %arraylen4 = getelementptr inbounds %"struct.OpenImageIO_v2_6_0::TypeDesc", ptr %this1, i32 0, i32 4
  %3 = load i32, ptr %arraylen.addr, align 4
  store i32 %3, ptr %arraylen4, align 4
  ret void
}

; Function Attrs: mustprogress uwtable
define void @_ZN18OpenImageIO_v2_6_011ImageOutputC2Ev(ptr noundef nonnull align 8 dereferenceable(184) %this) unnamed_addr #6 align 2 personality ptr @__gxx_personality_v0 {
entry:
  %this.addr = alloca ptr, align 8
  %agg.tmp = alloca %"struct.OpenImageIO_v2_6_0::TypeDesc", align 4
  %exn.slot = alloca ptr, align 8
  %ehselector.slot = alloca i32, align 4
  %ref.tmp = alloca ptr, align 8
  store ptr %this, ptr %this.addr, align 8
  %this1 = load ptr, ptr %this.addr, align 8
  store ptr getelementptr inbounds ({ [22 x ptr] }, ptr @_ZTVN18OpenImageIO_v2_6_011ImageOutputE, i32 0, i32 0, i32 2), ptr %this1, align 8
  %m_spec = getelementptr inbounds %"class.OpenImageIO_v2_6_0::ImageOutput", ptr %this1, i32 0, i32 1
  call void @_ZN18OpenImageIO_v2_6_08TypeDescC2ENS0_8BASETYPEENS0_9AGGREGATEENS0_12VECSEMANTICSEi(ptr noundef nonnull align 4 dereferenceable(8) %agg.tmp, i32 noundef 0, i32 noundef 1, i32 noundef 0, i32 noundef 0) #3
  call void @_ZN18OpenImageIO_v2_6_09ImageSpecC1ENS_8TypeDescE(ptr noundef nonnull align 8 dereferenceable(160) %m_spec, ptr noundef %agg.tmp) #3
  %m_impl = getelementptr inbounds %"class.OpenImageIO_v2_6_0::ImageOutput", ptr %this1, i32 0, i32 2
  %call = invoke noalias noundef nonnull ptr @_Znwm(i64 noundef 32) #18
          to label %invoke.cont unwind label %lpad

invoke.cont:                                      ; preds = %entry
  invoke void @_ZN18OpenImageIO_v2_6_011ImageOutput4ImplC2Ev(ptr noundef nonnull align 8 dereferenceable(32) %call)
          to label %invoke.cont3 unwind label %lpad2

invoke.cont3:                                     ; preds = %invoke.cont
  store ptr @_ZN18OpenImageIO_v2_6_011ImageOutput12impl_deleterEPNS0_4ImplE, ptr %ref.tmp, align 8
  call void @_ZNSt10unique_ptrIN18OpenImageIO_v2_6_011ImageOutput4ImplEPFvPS2_EEC2IS5_vEES3_NSt9enable_ifIXntsr19is_lvalue_referenceIT_EE5valueEOS9_E4typeE(ptr noundef nonnull align 8 dereferenceable(16) %m_impl, ptr noundef %call, ptr noundef nonnull align 8 dereferenceable(8) %ref.tmp) #3
  ret void

lpad:                                             ; preds = %entry
  %0 = landingpad { ptr, i32 }
          cleanup
  %1 = extractvalue { ptr, i32 } %0, 0
  store ptr %1, ptr %exn.slot, align 8
  %2 = extractvalue { ptr, i32 } %0, 1
  store i32 %2, ptr %ehselector.slot, align 4
  br label %ehcleanup

lpad2:                                            ; preds = %invoke.cont
  %3 = landingpad { ptr, i32 }
          cleanup
  %4 = extractvalue { ptr, i32 } %3, 0
  store ptr %4, ptr %exn.slot, align 8
  %5 = extractvalue { ptr, i32 } %3, 1
  store i32 %5, ptr %ehselector.slot, align 4
  call void @_ZdlPv(ptr noundef %call) #16
  br label %ehcleanup

ehcleanup:                                        ; preds = %lpad2, %lpad
  call void @_ZN18OpenImageIO_v2_6_09ImageSpecD2Ev(ptr noundef nonnull align 8 dereferenceable(160) %m_spec) #3
  br label %eh.resume

eh.resume:                                        ; preds = %ehcleanup
  %exn = load ptr, ptr %exn.slot, align 8
  %sel = load i32, ptr %ehselector.slot, align 4
  %lpad.val = insertvalue { ptr, i32 } poison, ptr %exn, 0
  %lpad.val4 = insertvalue { ptr, i32 } %lpad.val, i32 %sel, 1
  resume { ptr, i32 } %lpad.val4
}