; Function Attrs: mustprogress uwtable
define void @_ZN18OpenImageIO_v2_6_011ImageOutputC2Ev(ptr noundef nonnull align 8 dereferenceable(184) %this) unnamed_addr #5 align 2 personality ptr @__gxx_personality_v0 {
entry:
  %agg.tmp = alloca %"struct.OpenImageIO_v2_6_0::TypeDesc", align 4
  store ptr getelementptr inbounds ({ [22 x ptr] }, ptr @_ZTVN18OpenImageIO_v2_6_011ImageOutputE, i64 0, i32 0, i64 2), ptr %this, align 8
  %m_spec = getelementptr inbounds i8, ptr %this, i64 8
  store <4 x i8> <i8 0, i8 1, i8 0, i8 0>, ptr %agg.tmp, align 4
  %arraylen4.i = getelementptr inbounds i8, ptr %agg.tmp, i64 4
  store i32 0, ptr %arraylen4.i, align 4
  call void @_ZN18OpenImageIO_v2_6_09ImageSpecC1ENS_8TypeDescE(ptr noundef nonnull align 8 dereferenceable(160) %m_spec, ptr noundef nonnull %agg.tmp) #25
  %call = invoke noalias noundef nonnull dereferenceable(32) ptr @_Znwm(i64 noundef 32) #29
          to label %invoke.cont3 unwind label %lpad

invoke.cont3:                                     ; preds = %entry
  store ptr @_ZN5boost19thread_specific_ptrINSt7__cxx1112basic_stringIcSt11char_traitsIcESaIcEEEE15default_deleterEPS6_, ptr %call, align 8
  %m_threads.i = getelementptr inbounds i8, ptr %call, i64 8
  store i32 0, ptr %m_threads.i, align 8
  %m_io.i = getelementptr inbounds i8, ptr %call, i64 16
  call void @llvm.memset.p0.i64(ptr noundef nonnull align 8 dereferenceable(16) %m_io.i, i8 0, i64 16, i1 false)
  %m_impl = getelementptr inbounds i8, ptr %this, i64 168
  store ptr @_ZN18OpenImageIO_v2_6_011ImageOutput12impl_deleterEPNS0_4ImplE, ptr %m_impl, align 8
  %0 = getelementptr inbounds i8, ptr %this, i64 176
  store ptr %call, ptr %0, align 8
  ret void

lpad:                                             ; preds = %entry
  %1 = landingpad { ptr, i32 }
          cleanup
  call void @_ZN18OpenImageIO_v2_6_09ImageSpecD2Ev(ptr noundef nonnull align 8 dereferenceable(160) %m_spec) #25
  resume { ptr, i32 } %1
}